target datalayout = "e-m:e-p270:32:32-p271:32:32-p272:64:64-i64:64-i128:128-f80:128-n8:16:32:64-S128"
target triple = "x86_64-pc-linux-gnu"

%struct.strbuf = type { i64, i64, ptr }
%struct.tr2_timer = type { i64, i64, i64, i64, i64, i32 }
%struct.tr2_timer_metadata = type { ptr, ptr, i8 }

@.str.8 = private unnamed_addr constant [24 x i8] c"trace2/tr2_tgt_normal.c\00", align 1
@.str.30 = private unnamed_addr constant [6 x i8] c"timer\00", align 1
@.str.31 = private unnamed_addr constant [9 x i8] c"th_timer\00", align 1
@__const.fn_timer.buf_payload = private unnamed_addr constant %struct.strbuf { i64 0, i64 0, ptr @strbuf_slopbuf }, align 8
@.str.32 = private unnamed_addr constant [55 x i8] c"%s %s/%s intervals:%lu total:%8.6f min:%8.6f max:%8.6f\00", align 1

; Function Attrs: nounwind uwtable
define internal void @fn_timer(ptr noundef %0, ptr noundef %1, i32 noundef %2) #0 {
  %4 = alloca ptr, align 8
  %5 = alloca ptr, align 8
  %6 = alloca i32, align 4
  %7 = alloca ptr, align 8
  %8 = alloca %struct.strbuf, align 8
  %9 = alloca double, align 8
  %10 = alloca double, align 8
  %11 = alloca double, align 8
  store ptr %0, ptr %4, align 8, !tbaa !53
  store ptr %1, ptr %5, align 8, !tbaa !55
  store i32 %2, ptr %6, align 4, !tbaa !4
  call void @llvm.lifetime.start.p0(i64 8, ptr %7) #9
  %12 = load i32, ptr %6, align 4, !tbaa !4
  %13 = icmp ne i32 %12, 0
  %14 = select i1 %13, ptr @.str.30, ptr @.str.31
  store ptr %14, ptr %7, align 8, !tbaa !8
  call void @llvm.lifetime.start.p0(i64 24, ptr %8) #9
  call void @llvm.memcpy.p0.p0.i64(ptr align 8 %8, ptr align 8 @__const.fn_timer.buf_payload, i64 24, i1 false)
  call void @llvm.lifetime.start.p0(i64 8, ptr %9) #9
  %15 = load ptr, ptr %5, align 8, !tbaa !55
  %16 = getelementptr inbounds nuw %struct.tr2_timer, ptr %15, i32 0, i32 0
  %17 = load i64, ptr %16, align 8, !tbaa !57
  %18 = uitofp i64 %17 to double
  %19 = fdiv double %18, 1.000000e+09
  store double %19, ptr %9, align 8, !tbaa !16
  call void @llvm.lifetime.start.p0(i64 8, ptr %10) #9
  %20 = load ptr, ptr %5, align 8, !tbaa !55
  %21 = getelementptr inbounds nuw %struct.tr2_timer, ptr %20, i32 0, i32 1
  %22 = load i64, ptr %21, align 8, !tbaa !59
  %23 = uitofp i64 %22 to double
  %24 = fdiv double %23, 1.000000e+09
  store double %24, ptr %10, align 8, !tbaa !16
  call void @llvm.lifetime.start.p0(i64 8, ptr %11) #9
  %25 = load ptr, ptr %5, align 8, !tbaa !55
  %26 = getelementptr inbounds nuw %struct.tr2_timer, ptr %25, i32 0, i32 2
  %27 = load i64, ptr %26, align 8, !tbaa !60
  %28 = uitofp i64 %27 to double
  %29 = fdiv double %28, 1.000000e+09
  store double %29, ptr %11, align 8, !tbaa !16
  %30 = load ptr, ptr %7, align 8, !tbaa !8
  %31 = load ptr, ptr %4, align 8, !tbaa !53
  %32 = getelementptr inbounds nuw %struct.tr2_timer_metadata, ptr %31, i32 0, i32 0
  %33 = load ptr, ptr %32, align 8, !tbaa !61
  %34 = load ptr, ptr %4, align 8, !tbaa !53
  %35 = getelementptr inbounds nuw %struct.tr2_timer_metadata, ptr %34, i32 0, i32 1
  %36 = load ptr, ptr %35, align 8, !tbaa !63
  %37 = load ptr, ptr %5, align 8, !tbaa !55
  %38 = getelementptr inbounds nuw %struct.tr2_timer, ptr %37, i32 0, i32 4
  %39 = load i64, ptr %38, align 8, !tbaa !64
  %40 = load double, ptr %9, align 8, !tbaa !16
  %41 = load double, ptr %10, align 8, !tbaa !16
  %42 = load double, ptr %11, align 8, !tbaa !16
  call void (ptr, ptr, ...) @strbuf_addf(ptr noundef %8, ptr noundef @.str.32, ptr noundef %30, ptr noundef %33, ptr noundef %36, i64 noundef %39, double noundef %40, double noundef %41, double noundef %42)
  call void @normal_io_write_fl(ptr noundef @.str.8, i32 noundef 357, ptr noundef %8)
  call void @strbuf_release(ptr noundef %8)
  call void @llvm.lifetime.end.p0(i64 8, ptr %11) #9
  call void @llvm.lifetime.end.p0(i64 8, ptr %10) #9
  call void @llvm.lifetime.end.p0(i64 8, ptr %9) #9
  call void @llvm.lifetime.end.p0(i64 24, ptr %8) #9
  call void @llvm.lifetime.end.p0(i64 8, ptr %7) #9
  ret void
}